target datalayout = "e-m:e-p270:32:32-p271:32:32-p272:64:64-i64:64-i128:128-f80:128-n8:16:32:64-S128"
target triple = "x86_64-pc-linux-gnu"

%"class.gmx::ArrayRef" = type { %"struct.gmx::ArrayRefIter", %"struct.gmx::ArrayRefIter" }
%"struct.gmx::ArrayRefIter" = type { ptr }
%union.t_iparams = type { %struct.anon.21 }
%struct.anon.21 = type { [3 x float], [3 x float], [3 x float], [3 x float] }
%"class.std::vector.36" = type { %"struct.std::_Vector_base.37" }
%"struct.std::_Vector_base.37" = type { %"struct.std::_Vector_base<float, std::allocator<float>>::_Vector_impl" }
%"struct.std::_Vector_base<float, std::allocator<float>>::_Vector_impl" = type { %"struct.std::_Vector_base<float, std::allocator<float>>::_Vector_impl_data" }
%"struct.std::_Vector_base<float, std::allocator<float>>::_Vector_impl_data" = type { ptr, ptr, ptr }
%struct.anon.30 = type { i32, float, float }
%struct.t_fcdata = type { %"class.std::vector.46", %"class.std::vector.46", %"class.std::vector.46", ptr, %"class.std::unique_ptr.51" }
%"class.std::vector.46" = type { %"struct.std::_Vector_base.47" }
%"struct.std::_Vector_base.47" = type { %"struct.std::_Vector_base<bondedtable_t, std::allocator<bondedtable_t>>::_Vector_impl" }
%"struct.std::_Vector_base<bondedtable_t, std::allocator<bondedtable_t>>::_Vector_impl" = type { %"struct.std::_Vector_base<bondedtable_t, std::allocator<bondedtable_t>>::_Vector_impl_data" }
%"struct.std::_Vector_base<bondedtable_t, std::allocator<bondedtable_t>>::_Vector_impl_data" = type { ptr, ptr, ptr }
%"class.std::unique_ptr.51" = type { %"struct.std::__uniq_ptr_data.52" }
%"struct.std::__uniq_ptr_data.52" = type { %"class.std::__uniq_ptr_impl.53" }
%"class.std::__uniq_ptr_impl.53" = type { %"class.std::tuple.54" }
%"class.std::tuple.54" = type { %"struct.std::_Tuple_impl.55" }
%"struct.std::_Tuple_impl.55" = type { %"struct.std::_Head_base.58" }
%"struct.std::_Head_base.58" = type { ptr }
%struct.bondedtable_t = type { i32, float, %"class.std::vector.36" }

@.str.12 = private unnamed_addr constant [9 x i8] c"dihedral\00", align 1

; Function Attrs: mustprogress nounwind uwtable
define linkonce_odr noundef nonnull align 8 dereferenceable(32) ptr @_ZNSt6vectorI13bondedtable_tSaIS0_EEixEm(ptr noundef nonnull align 8 dereferenceable(24) %0, i64 noundef %1) #3 comdat align 2 {
  %3 = alloca ptr, align 8
  %4 = alloca i64, align 8
  store ptr %0, ptr %3, align 8
  store i64 %1, ptr %4, align 8
  %5 = load ptr, ptr %3, align 8
  %6 = getelementptr inbounds %"struct.std::_Vector_base.47", ptr %5, i32 0, i32 0
  %7 = getelementptr inbounds %"struct.std::_Vector_base<bondedtable_t, std::allocator<bondedtable_t>>::_Vector_impl_data", ptr %6, i32 0, i32 0
  %8 = load ptr, ptr %7, align 8
  %9 = load i64, ptr %4, align 8
  %10 = getelementptr inbounds %struct.bondedtable_t, ptr %8, i64 %9
  ret ptr %10
}

; Function Attrs: mustprogress uwtable
define internal noundef float @_ZN12_GLOBAL__N_18tab_dihsIL18BondedKernelFlavor3EEEfiPKiPK9t_iparamsPA3_KfPA4_fPA3_fPK5t_pbcfPfN3gmx8ArrayRefIS7_EEP8t_fcdataP12t_disresdataP12t_oriresdataPi(i32 noundef %0, ptr noundef %1, ptr noundef %2, ptr noundef %3, ptr noundef %4, ptr noundef %5, ptr noundef %6, float noundef %7, ptr noundef %8, ptr noundef byval(%"class.gmx::ArrayRef") align 8 %9, ptr noundef %10, ptr noundef %11, ptr noundef %12, ptr noundef %13) #2 {
  %15 = alloca i32, align 4
  %16 = alloca ptr, align 8
  %17 = alloca ptr, align 8
  %18 = alloca ptr, align 8
  %19 = alloca ptr, align 8
  %20 = alloca ptr, align 8
  %21 = alloca ptr, align 8
  %22 = alloca float, align 4
  %23 = alloca ptr, align 8
  %24 = alloca ptr, align 8
  %25 = alloca ptr, align 8
  %26 = alloca ptr, align 8
  %27 = alloca ptr, align 8
  %28 = alloca i32, align 4
  %29 = alloca i32, align 4
  %30 = alloca i32, align 4
  %31 = alloca i32, align 4
  %32 = alloca i32, align 4
  %33 = alloca i32, align 4
  %34 = alloca i32, align 4
  %35 = alloca i32, align 4
  %36 = alloca i32, align 4
  %37 = alloca i32, align 4
  %38 = alloca [3 x float], align 4
  %39 = alloca [3 x float], align 4
  %40 = alloca [3 x float], align 4
  %41 = alloca [3 x float], align 4
  %42 = alloca [3 x float], align 4
  %43 = alloca float, align 4
  %44 = alloca float, align 4
  %45 = alloca float, align 4
  %46 = alloca float, align 4
  store i32 %0, ptr %15, align 4
  store ptr %1, ptr %16, align 8
  store ptr %2, ptr %17, align 8
  store ptr %3, ptr %18, align 8
  store ptr %4, ptr %19, align 8
  store ptr %5, ptr %20, align 8
  store ptr %6, ptr %21, align 8
  store float %7, ptr %22, align 4
  store ptr %8, ptr %23, align 8
  store ptr %10, ptr %24, align 8
  store ptr %11, ptr %25, align 8
  store ptr %12, ptr %26, align 8
  store ptr %13, ptr %27, align 8
  store float 0.000000e+00, ptr %46, align 4
  store i32 0, ptr %28, align 4
  br label %47

47:                                               ; preds = %51, %14
  %48 = load i32, ptr %28, align 4
  %49 = load i32, ptr %15, align 4
  %50 = icmp slt i32 %48, %49
  br i1 %50, label %51, label %163

51:                                               ; preds = %47
  %52 = load ptr, ptr %16, align 8
  %53 = load i32, ptr %28, align 4
  %54 = add nsw i32 %53, 1
  store i32 %54, ptr %28, align 4
  %55 = sext i32 %53 to i64
  %56 = getelementptr inbounds i32, ptr %52, i64 %55
  %57 = load i32, ptr %56, align 4
  store i32 %57, ptr %29, align 4
  %58 = load ptr, ptr %16, align 8
  %59 = load i32, ptr %28, align 4
  %60 = add nsw i32 %59, 1
  store i32 %60, ptr %28, align 4
  %61 = sext i32 %59 to i64
  %62 = getelementptr inbounds i32, ptr %58, i64 %61
  %63 = load i32, ptr %62, align 4
  store i32 %63, ptr %30, align 4
  %64 = load ptr, ptr %16, align 8
  %65 = load i32, ptr %28, align 4
  %66 = add nsw i32 %65, 1
  store i32 %66, ptr %28, align 4
  %67 = sext i32 %65 to i64
  %68 = getelementptr inbounds i32, ptr %64, i64 %67
  %69 = load i32, ptr %68, align 4
  store i32 %69, ptr %31, align 4
  %70 = load ptr, ptr %16, align 8
  %71 = load i32, ptr %28, align 4
  %72 = add nsw i32 %71, 1
  store i32 %72, ptr %28, align 4
  %73 = sext i32 %71 to i64
  %74 = getelementptr inbounds i32, ptr %70, i64 %73
  %75 = load i32, ptr %74, align 4
  store i32 %75, ptr %32, align 4
  %76 = load ptr, ptr %16, align 8
  %77 = load i32, ptr %28, align 4
  %78 = add nsw i32 %77, 1
  store i32 %78, ptr %28, align 4
  %79 = sext i32 %77 to i64
  %80 = getelementptr inbounds i32, ptr %76, i64 %79
  %81 = load i32, ptr %80, align 4
  store i32 %81, ptr %33, align 4
  %82 = load ptr, ptr %18, align 8
  %83 = load i32, ptr %30, align 4
  %84 = sext i32 %83 to i64
  %85 = getelementptr inbounds [3 x float], ptr %82, i64 %84
  %86 = getelementptr inbounds [3 x float], ptr %85, i64 0, i64 0
  %87 = load ptr, ptr %18, align 8
  %88 = load i32, ptr %31, align 4
  %89 = sext i32 %88 to i64
  %90 = getelementptr inbounds [3 x float], ptr %87, i64 %89
  %91 = getelementptr inbounds [3 x float], ptr %90, i64 0, i64 0
  %92 = load ptr, ptr %18, align 8
  %93 = load i32, ptr %32, align 4
  %94 = sext i32 %93 to i64
  %95 = getelementptr inbounds [3 x float], ptr %92, i64 %94
  %96 = getelementptr inbounds [3 x float], ptr %95, i64 0, i64 0
  %97 = load ptr, ptr %18, align 8
  %98 = load i32, ptr %33, align 4
  %99 = sext i32 %98 to i64
  %100 = getelementptr inbounds [3 x float], ptr %97, i64 %99
  %101 = getelementptr inbounds [3 x float], ptr %100, i64 0, i64 0
  %102 = load ptr, ptr %21, align 8
  %103 = getelementptr inbounds [3 x float], ptr %38, i64 0, i64 0
  %104 = getelementptr inbounds [3 x float], ptr %39, i64 0, i64 0
  %105 = getelementptr inbounds [3 x float], ptr %40, i64 0, i64 0
  %106 = getelementptr inbounds [3 x float], ptr %41, i64 0, i64 0
  %107 = getelementptr inbounds [3 x float], ptr %42, i64 0, i64 0
  %108 = call noundef float @_Z9dih_anglePKfS0_S0_S0_PK5t_pbcPfS4_S4_S4_S4_PiS5_S5_(ptr noundef %86, ptr noundef %91, ptr noundef %96, ptr noundef %101, ptr noundef %102, ptr noundef %103, ptr noundef %104, ptr noundef %105, ptr noundef %106, ptr noundef %107, ptr noundef %35, ptr noundef %36, ptr noundef %37)
  store float %108, ptr %43, align 4
  %109 = load ptr, ptr %17, align 8
  %110 = load i32, ptr %29, align 4
  %111 = sext i32 %110 to i64
  %112 = getelementptr inbounds %union.t_iparams, ptr %109, i64 %111
  %113 = getelementptr inbounds %struct.anon.30, ptr %112, i32 0, i32 0
  %114 = load i32, ptr %113, align 4
  store i32 %114, ptr %34, align 4
  %115 = load i32, ptr %34, align 4
  %116 = load ptr, ptr %24, align 8
  %117 = getelementptr inbounds %struct.t_fcdata, ptr %116, i32 0, i32 2
  %118 = load i32, ptr %34, align 4
  %119 = sext i32 %118 to i64
  %120 = call noundef nonnull align 8 dereferenceable(32) ptr @_ZNSt6vectorI13bondedtable_tSaIS0_EEixEm(ptr noundef nonnull align 8 dereferenceable(24) %117, i64 noundef %119) #4
  %121 = load ptr, ptr %17, align 8
  %122 = load i32, ptr %29, align 4
  %123 = sext i32 %122 to i64
  %124 = getelementptr inbounds %union.t_iparams, ptr %121, i64 %123
  %125 = getelementptr inbounds %struct.anon.30, ptr %124, i32 0, i32 1
  %126 = load float, ptr %125, align 4
  %127 = load ptr, ptr %17, align 8
  %128 = load i32, ptr %29, align 4
  %129 = sext i32 %128 to i64
  %130 = getelementptr inbounds %union.t_iparams, ptr %127, i64 %129
  %131 = getelementptr inbounds %struct.anon.30, ptr %130, i32 0, i32 2
  %132 = load float, ptr %131, align 4
  %133 = load float, ptr %43, align 4
  %134 = fpext float %133 to double
  %135 = fadd double %134, 0x400921FB54442D18
  %136 = fptrunc double %135 to float
  %137 = load float, ptr %22, align 4
  %138 = call noundef float @_ZN12_GLOBAL__N_110bonded_tabEPKciPK13bondedtable_tffffPfS5_(ptr noundef @.str.12, i32 noundef %115, ptr noundef %120, float noundef %126, float noundef %132, float noundef %136, float noundef %137, ptr noundef %45, ptr noundef %44)
  %139 = load ptr, ptr %23, align 8
  %140 = load float, ptr %139, align 4
  %141 = fadd float %140, %138
  store float %141, ptr %139, align 4
  %142 = load float, ptr %45, align 4
  %143 = load float, ptr %46, align 4
  %144 = fadd float %143, %142
  store float %144, ptr %46, align 4
  %145 = load i32, ptr %30, align 4
  %146 = load i32, ptr %31, align 4
  %147 = load i32, ptr %32, align 4
  %148 = load i32, ptr %33, align 4
  %149 = load float, ptr %44, align 4
  %150 = fneg float %149
  %151 = getelementptr inbounds [3 x float], ptr %38, i64 0, i64 0
  %152 = getelementptr inbounds [3 x float], ptr %39, i64 0, i64 0
  %153 = getelementptr inbounds [3 x float], ptr %40, i64 0, i64 0
  %154 = getelementptr inbounds [3 x float], ptr %41, i64 0, i64 0
  %155 = getelementptr inbounds [3 x float], ptr %42, i64 0, i64 0
  %156 = load ptr, ptr %19, align 8
  %157 = load ptr, ptr %20, align 8
  %158 = load ptr, ptr %21, align 8
  %159 = load ptr, ptr %18, align 8
  %160 = load i32, ptr %35, align 4
  %161 = load i32, ptr %36, align 4
  %162 = load i32, ptr %37, align 4
  call void @_Z10do_dih_fupIL18BondedKernelFlavor3EEviiiifPfS1_S1_S1_S1_PA4_fPA3_fPK5t_pbcPA3_Kfiii(i32 noundef %145, i32 noundef %146, i32 noundef %147, i32 noundef %148, float noundef %150, ptr noundef %151, ptr noundef %152, ptr noundef %153, ptr noundef %154, ptr noundef %155, ptr noundef %156, ptr noundef %157, ptr noundef %158, ptr noundef %159, i32 noundef %160, i32 noundef %161, i32 noundef %162)
  br label %47, !llvm.loop !195

163:                                              ; preds = %47
  %164 = load float, ptr %46, align 4
  ret float %164
}