; Function Attrs: mustprogress uwtable
define internal noundef float @_ZN12_GLOBAL__N_18tab_dihsIL18BondedKernelFlavor3EEEfiPKiPK9t_iparamsPA3_KfPA4_fPA3_fPK5t_pbcfPfN3gmx8ArrayRefIS7_EEP8t_fcdataP12t_disresdataP12t_oriresdataPi(i32 noundef %0, ptr nocapture noundef readonly %1, ptr nocapture noundef readonly %2, ptr noundef %3, ptr noundef %4, ptr noundef %5, ptr noundef %6, float noundef %7, ptr nocapture noundef %8, ptr nocapture noundef readnone byval(%"class.gmx::ArrayRef") align 8 %9, ptr nocapture noundef readonly %10, ptr nocapture readnone %11, ptr nocapture readnone %12, ptr nocapture readnone %13) #4 {
  %15 = alloca i32, align 4
  %16 = alloca i32, align 4
  %17 = alloca i32, align 4
  %18 = alloca [3 x float], align 4
  %19 = alloca [3 x float], align 4
  %20 = alloca [3 x float], align 4
  %21 = alloca [3 x float], align 4
  %22 = alloca [3 x float], align 4
  %23 = alloca float, align 4
  %24 = alloca float, align 4
  %invariant.gep = getelementptr i8, ptr %1, i64 16
  %25 = icmp sgt i32 %0, 0
  br i1 %25, label %.lr.ph, label %._crit_edge

.lr.ph:                                           ; preds = %14
  %26 = getelementptr inbounds i8, ptr %10, i64 48
  br label %27

27:                                               ; preds = %.lr.ph, %27
  %indvars.iv = phi i64 [ 0, %.lr.ph ], [ %indvars.iv.next, %27 ]
  %.044 = phi float [ 0.000000e+00, %.lr.ph ], [ %63, %27 ]
  %28 = getelementptr inbounds i32, ptr %1, i64 %indvars.iv
  %29 = load i32, ptr %28, align 4
  %30 = getelementptr i8, ptr %28, i64 4
  %31 = load i32, ptr %30, align 4
  %32 = getelementptr i8, ptr %28, i64 8
  %33 = load i32, ptr %32, align 4
  %34 = getelementptr i8, ptr %28, i64 12
  %35 = load i32, ptr %34, align 4
  %indvars.iv.next = add nuw nsw i64 %indvars.iv, 5
  %gep = getelementptr i32, ptr %invariant.gep, i64 %indvars.iv
  %36 = load i32, ptr %gep, align 4
  %37 = sext i32 %31 to i64
  %38 = getelementptr inbounds [3 x float], ptr %3, i64 %37
  %39 = sext i32 %33 to i64
  %40 = getelementptr inbounds [3 x float], ptr %3, i64 %39
  %41 = sext i32 %35 to i64
  %42 = getelementptr inbounds [3 x float], ptr %3, i64 %41
  %43 = sext i32 %36 to i64
  %44 = getelementptr inbounds [3 x float], ptr %3, i64 %43
  %45 = call noundef float @_Z9dih_anglePKfS0_S0_S0_PK5t_pbcPfS4_S4_S4_S4_PiS5_S5_(ptr noundef %38, ptr noundef %40, ptr noundef %42, ptr noundef %44, ptr noundef %6, ptr noundef nonnull %18, ptr noundef nonnull %19, ptr noundef nonnull %20, ptr noundef nonnull %21, ptr noundef nonnull %22, ptr noundef nonnull %15, ptr noundef nonnull %16, ptr noundef nonnull %17)
  %46 = sext i32 %29 to i64
  %47 = getelementptr inbounds %union.t_iparams, ptr %2, i64 %46
  %48 = load i32, ptr %47, align 4
  %49 = sext i32 %48 to i64
  %50 = load ptr, ptr %26, align 8
  %51 = getelementptr inbounds %struct.bondedtable_t, ptr %50, i64 %49
  %52 = getelementptr inbounds i8, ptr %47, i64 4
  %53 = load float, ptr %52, align 4
  %54 = getelementptr inbounds i8, ptr %47, i64 8
  %55 = load float, ptr %54, align 4
  %56 = fpext float %45 to double
  %57 = fadd double %56, 0x400921FB54442D18
  %58 = fptrunc double %57 to float
  %59 = call fastcc noundef float @_ZN12_GLOBAL__N_110bonded_tabEPKciPK13bondedtable_tffffPfS5_(ptr noundef nonnull @.str.12, i32 noundef %48, ptr noundef nonnull %51, float noundef %53, float noundef %55, float noundef %58, float noundef %7, ptr noundef nonnull %24, ptr noundef nonnull %23)
  %60 = load float, ptr %8, align 4
  %61 = fadd float %59, %60
  store float %61, ptr %8, align 4
  %62 = load float, ptr %24, align 4
  %63 = fadd float %.044, %62
  %64 = load float, ptr %23, align 4
  %65 = fneg float %64
  %66 = load i32, ptr %15, align 4
  %67 = load i32, ptr %16, align 4
  %68 = load i32, ptr %17, align 4
  call void @_Z10do_dih_fupIL18BondedKernelFlavor3EEviiiifPfS1_S1_S1_S1_PA4_fPA3_fPK5t_pbcPA3_Kfiii(i32 noundef %31, i32 noundef %33, i32 noundef %35, i32 noundef %36, float noundef %65, ptr noundef nonnull %18, ptr noundef nonnull %19, ptr noundef nonnull %20, ptr noundef nonnull %21, ptr noundef nonnull %22, ptr noundef %4, ptr noundef %5, ptr noundef %6, ptr noundef %3, i32 noundef %66, i32 noundef %67, i32 noundef %68)
  %69 = trunc nuw i64 %indvars.iv.next to i32
  %70 = icmp slt i32 %69, %0
  br i1 %70, label %27, label %._crit_edge, !llvm.loop !199

._crit_edge:                                      ; preds = %27, %14
  %.0.lcssa = phi float [ 0.000000e+00, %14 ], [ %63, %27 ]
  ret float %.0.lcssa
}